; Function Attrs: mustprogress nounwind uwtable
define dso_local noundef ptr @_ZNK4llvm14DependenceInfo15findCoefficientEPKNS_4SCEVEPKNS_4LoopE(ptr nocapture noundef nonnull readonly align 8 dereferenceable(44) %0, ptr noundef %1, ptr noundef readnone %2) local_unnamed_addr #0 align 2 {
  %4 = getelementptr inbounds nuw i8, ptr %1, i64 24
  %5 = load i16, ptr %4, align 8
  %6 = icmp ne i16 %5, 8
  %.not1216 = icmp eq ptr %1, null
  %.not17 = or i1 %.not1216, %6
  br i1 %.not17, label %tailrecurse._crit_edge, label %.lr.ph

tailrecurse._crit_edge:                           ; preds = %tailrecurse, %3
  %.tr13.lcssa = phi ptr [ %1, %3 ], [ %20, %tailrecurse ]
  %7 = getelementptr inbounds nuw i8, ptr %0, i64 8
  %8 = load ptr, ptr %7, align 8
  %9 = tail call noundef ptr @_ZNK4llvm4SCEV7getTypeEv(ptr noundef nonnull align 8 dereferenceable(30) %.tr13.lcssa) #23
  %10 = tail call noundef ptr @_ZN4llvm15ScalarEvolution11getConstantEPNS_4TypeEmb(ptr noundef nonnull align 8 dereferenceable(1392) %8, ptr noundef %9, i64 noundef 0, i1 noundef zeroext false) #23
  br label %24

.lr.ph:                                           ; preds = %3, %tailrecurse
  %.tr1318 = phi ptr [ %20, %tailrecurse ], [ %1, %3 ]
  %11 = getelementptr inbounds nuw i8, ptr %.tr1318, i64 48
  %12 = load ptr, ptr %11, align 8
  %13 = icmp eq ptr %12, %2
  br i1 %13, label %14, label %tailrecurse

14:                                               ; preds = %.lr.ph
  %15 = getelementptr inbounds nuw i8, ptr %0, i64 8
  %16 = load ptr, ptr %15, align 8
  %17 = tail call noundef ptr @_ZNK4llvm14SCEVAddRecExpr17getStepRecurrenceERNS_15ScalarEvolutionE(ptr noundef nonnull align 8 dereferenceable(56) %.tr1318, ptr noundef nonnull align 8 dereferenceable(1392) %16)
  br label %24

tailrecurse:                                      ; preds = %.lr.ph
  %18 = getelementptr inbounds nuw i8, ptr %.tr1318, i64 32
  %19 = load ptr, ptr %18, align 8
  %20 = load ptr, ptr %19, align 8
  %21 = getelementptr inbounds nuw i8, ptr %20, i64 24
  %22 = load i16, ptr %21, align 8
  %23 = icmp ne i16 %22, 8
  %.not12 = icmp eq ptr %20, null
  %.not = or i1 %.not12, %23
  br i1 %.not, label %tailrecurse._crit_edge, label %.lr.ph

24:                                               ; preds = %14, %tailrecurse._crit_edge
  %.0 = phi ptr [ %17, %14 ], [ %10, %tailrecurse._crit_edge ]
  ret ptr %.0
}